; Function Attrs: mustprogress uwtable
define hidden void @_ZN2cv15highgui_backend12setUIBackendERKSt10shared_ptrINS0_9UIBackendEE(ptr noundef nonnull readonly align 8 captures(none) dereferenceable(16) %0) local_unnamed_addr #3 personality ptr @__gxx_personality_v0 {
  %2 = load atomic i8, ptr @_ZGVZN2cv15highgui_backend19getCurrentUIBackendEvE18g_currentUIBackend acquire, align 8
  %3 = icmp eq i8 %2, 0
  br i1 %3, label %4, label %_ZN2cv15highgui_backend19getCurrentUIBackendEv.exit, !prof !3

4:                                                ; preds = %1
  %5 = tail call i32 @__cxa_guard_acquire(ptr nonnull @_ZGVZN2cv15highgui_backend19getCurrentUIBackendEvE18g_currentUIBackend) #30
  %.not.i = icmp eq i32 %5, 0
  br i1 %.not.i, label %_ZN2cv15highgui_backend19getCurrentUIBackendEv.exit, label %6

6:                                                ; preds = %4
  invoke fastcc void @_ZN2cv15highgui_backendL22createDefaultUIBackendEv()
          to label %7 unwind label %9

7:                                                ; preds = %6
  %8 = tail call i32 @__cxa_atexit(ptr nonnull @_ZNSt12__shared_ptrIN2cv15highgui_backend9UIBackendELN9__gnu_cxx12_Lock_policyE2EED2Ev, ptr nonnull @_ZZN2cv15highgui_backend19getCurrentUIBackendEvE18g_currentUIBackend, ptr nonnull @__dso_handle) #30
  tail call void @__cxa_guard_release(ptr nonnull @_ZGVZN2cv15highgui_backend19getCurrentUIBackendEvE18g_currentUIBackend) #30
  br label %_ZN2cv15highgui_backend19getCurrentUIBackendEv.exit

9:                                                ; preds = %6
  %10 = landingpad { ptr, i32 }
          cleanup
  tail call void @__cxa_guard_abort(ptr nonnull @_ZGVZN2cv15highgui_backend19getCurrentUIBackendEvE18g_currentUIBackend) #30
  resume { ptr, i32 } %10

_ZN2cv15highgui_backend19getCurrentUIBackendEv.exit: ; preds = %1, %4, %7
  %11 = load ptr, ptr %0, align 8, !tbaa !166
  store ptr %11, ptr @_ZZN2cv15highgui_backend19getCurrentUIBackendEvE18g_currentUIBackend, align 8, !tbaa !166
  %12 = getelementptr inbounds nuw i8, ptr %0, i64 8
  %13 = load ptr, ptr %12, align 8, !tbaa !116
  %14 = load ptr, ptr getelementptr inbounds nuw (i8, ptr @_ZZN2cv15highgui_backend19getCurrentUIBackendEvE18g_currentUIBackend, i64 8), align 8, !tbaa !116
  %.not.i.i.i = icmp eq ptr %13, %14
  br i1 %.not.i.i.i, label %_ZNSt10shared_ptrIN2cv15highgui_backend9UIBackendEEaSERKS3_.exit, label %15

15:                                               ; preds = %_ZN2cv15highgui_backend19getCurrentUIBackendEv.exit
  %.not7.i.i.i = icmp eq ptr %13, null
  br i1 %.not7.i.i.i, label %_ZNSt16_Sp_counted_baseILN9__gnu_cxx12_Lock_policyE2EE15_M_add_ref_copyEv.exit.i.i.i, label %16

16:                                               ; preds = %15
  %17 = getelementptr inbounds nuw i8, ptr %13, i64 8
  %18 = load i8, ptr @__libc_single_threaded, align 1, !tbaa !22
  %.not.i.i.i.i = icmp eq i8 %18, 0
  br i1 %.not.i.i.i.i, label %22, label %19

19:                                               ; preds = %16
  %20 = load i32, ptr %17, align 4, !tbaa !151
  %21 = add nsw i32 %20, 1
  store i32 %21, ptr %17, align 4, !tbaa !151
  br label %_ZNSt16_Sp_counted_baseILN9__gnu_cxx12_Lock_policyE2EE15_M_add_ref_copyEv.exit.i.i.i

22:                                               ; preds = %16
  %23 = atomicrmw volatile add ptr %17, i32 1 acq_rel, align 4
  %.pr.pre.i.i.i = load ptr, ptr getelementptr inbounds nuw (i8, ptr @_ZZN2cv15highgui_backend19getCurrentUIBackendEvE18g_currentUIBackend, i64 8), align 8, !tbaa !116
  br label %_ZNSt16_Sp_counted_baseILN9__gnu_cxx12_Lock_policyE2EE15_M_add_ref_copyEv.exit.i.i.i

_ZNSt16_Sp_counted_baseILN9__gnu_cxx12_Lock_policyE2EE15_M_add_ref_copyEv.exit.i.i.i: ; preds = %22, %19, %15
  %24 = phi ptr [ %14, %15 ], [ %14, %19 ], [ %.pr.pre.i.i.i, %22 ]
  %.not8.i.i.i = icmp eq ptr %24, null
  br i1 %.not8.i.i.i, label %_ZNSt16_Sp_counted_baseILN9__gnu_cxx12_Lock_policyE2EE10_M_releaseEv.exit.i.i.i, label %25

25:                                               ; preds = %_ZNSt16_Sp_counted_baseILN9__gnu_cxx12_Lock_policyE2EE15_M_add_ref_copyEv.exit.i.i.i
  %26 = getelementptr inbounds nuw i8, ptr %24, i64 8
  %27 = load atomic i64, ptr %26 acquire, align 8
  %28 = icmp eq i64 %27, 4294967297
  %29 = trunc i64 %27 to i32
  br i1 %28, label %30, label %38

30:                                               ; preds = %25
  store i32 0, ptr %26, align 8, !tbaa !112
  %31 = getelementptr inbounds nuw i8, ptr %24, i64 12
  store i32 0, ptr %31, align 4, !tbaa !115
  %32 = load ptr, ptr %24, align 8, !tbaa !86
  %33 = getelementptr inbounds nuw i8, ptr %32, i64 16
  %34 = load ptr, ptr %33, align 8
  tail call void %34(ptr noundef nonnull align 8 dereferenceable(16) %24) #30
  %35 = load ptr, ptr %24, align 8, !tbaa !86
  %36 = getelementptr inbounds nuw i8, ptr %35, i64 24
  %37 = load ptr, ptr %36, align 8
  tail call void %37(ptr noundef nonnull align 8 dereferenceable(16) %24) #30
  br label %_ZNSt16_Sp_counted_baseILN9__gnu_cxx12_Lock_policyE2EE10_M_releaseEv.exit.i.i.i

38:                                               ; preds = %25
  %39 = load i8, ptr @__libc_single_threaded, align 1, !tbaa !22
  %.not.i9.i.i.i = icmp eq i8 %39, 0
  br i1 %.not.i9.i.i.i, label %42, label %40

40:                                               ; preds = %38
  %41 = add nsw i32 %29, -1
  store i32 %41, ptr %26, align 4, !tbaa !151
  br label %_ZN9__gnu_cxx27__exchange_and_add_dispatchEPii.exit.i.i.i.i

42:                                               ; preds = %38
  %43 = atomicrmw volatile add ptr %26, i32 -1 acq_rel, align 4
  br label %_ZN9__gnu_cxx27__exchange_and_add_dispatchEPii.exit.i.i.i.i

_ZN9__gnu_cxx27__exchange_and_add_dispatchEPii.exit.i.i.i.i: ; preds = %42, %40
  %.0.i.i.i.i.i = phi i32 [ %29, %40 ], [ %43, %42 ]
  %44 = icmp eq i32 %.0.i.i.i.i.i, 1
  br i1 %44, label %45, label %_ZNSt16_Sp_counted_baseILN9__gnu_cxx12_Lock_policyE2EE10_M_releaseEv.exit.i.i.i, !prof !152

45:                                               ; preds = %_ZN9__gnu_cxx27__exchange_and_add_dispatchEPii.exit.i.i.i.i
  tail call void @_ZNSt16_Sp_counted_baseILN9__gnu_cxx12_Lock_policyE2EE24_M_release_last_use_coldEv(ptr noundef nonnull align 8 dereferenceable(16) %24) #30
  br label %_ZNSt16_Sp_counted_baseILN9__gnu_cxx12_Lock_policyE2EE10_M_releaseEv.exit.i.i.i

_ZNSt16_Sp_counted_baseILN9__gnu_cxx12_Lock_policyE2EE10_M_releaseEv.exit.i.i.i: ; preds = %45, %_ZN9__gnu_cxx27__exchange_and_add_dispatchEPii.exit.i.i.i.i, %30, %_ZNSt16_Sp_counted_baseILN9__gnu_cxx12_Lock_policyE2EE15_M_add_ref_copyEv.exit.i.i.i
  store ptr %13, ptr getelementptr inbounds nuw (i8, ptr @_ZZN2cv15highgui_backend19getCurrentUIBackendEvE18g_currentUIBackend, i64 8), align 8, !tbaa !116
  br label %_ZNSt10shared_ptrIN2cv15highgui_backend9UIBackendEEaSERKS3_.exit

_ZNSt10shared_ptrIN2cv15highgui_backend9UIBackendEEaSERKS3_.exit: ; preds = %_ZN2cv15highgui_backend19getCurrentUIBackendEv.exit, %_ZNSt16_Sp_counted_baseILN9__gnu_cxx12_Lock_policyE2EE10_M_releaseEv.exit.i.i.i
  ret void
}